target datalayout = "e-m:e-p270:32:32-p271:32:32-p272:64:64-i64:64-i128:128-f80:128-n8:16:32:64-S128"
target triple = "x86_64-pc-linux-gnu"

%struct.PyVarObject = type { %struct._object, i64 }
%struct._object = type { %union.anon, ptr }
%union.anon = type { i64 }
%struct.PyGC_Head = type { i64, i64 }
%struct._PyManagedBufferObject = type { %struct._object, i32, i64, %struct.Py_buffer }
%struct.Py_buffer = type { ptr, ptr, i64, i64, i32, i32, ptr, ptr, ptr, ptr, ptr }
%struct.PyMemoryViewObject = type { %struct.PyVarObject, ptr, i64, i32, i64, %struct.Py_buffer, ptr, [1 x i64] }
%struct.anon = type { i32, i32 }

; Function Attrs: inlinehint nounwind uwtable
define internal void @_PyGCHead_SET_PREV(ptr noundef %0, ptr noundef %1) #3 {
  %3 = alloca ptr, align 8
  %4 = alloca ptr, align 8
  %5 = alloca i64, align 8
  store ptr %0, ptr %3, align 8, !tbaa !9
  store ptr %1, ptr %4, align 8, !tbaa !9
  call void @llvm.lifetime.start.p0(i64 8, ptr %5) #9
  %6 = load ptr, ptr %4, align 8, !tbaa !9
  %7 = ptrtoint ptr %6 to i64
  store i64 %7, ptr %5, align 8, !tbaa !23
  %8 = load ptr, ptr %3, align 8, !tbaa !9
  %9 = getelementptr inbounds nuw %struct.PyGC_Head, ptr %8, i32 0, i32 1
  %10 = load i64, ptr %9, align 8, !tbaa !75
  %11 = and i64 %10, 3
  %12 = load i64, ptr %5, align 8, !tbaa !23
  %13 = or i64 %11, %12
  %14 = load ptr, ptr %3, align 8, !tbaa !9
  %15 = getelementptr inbounds nuw %struct.PyGC_Head, ptr %14, i32 0, i32 1
  store i64 %13, ptr %15, align 8, !tbaa !75
  call void @llvm.lifetime.end.p0(i64 8, ptr %5) #9
  ret void
}

; Function Attrs: inlinehint nounwind uwtable
define internal void @_PyGCHead_SET_NEXT(ptr noundef %0, ptr noundef %1) #3 {
  %3 = alloca ptr, align 8
  %4 = alloca ptr, align 8
  %5 = alloca i64, align 8
  store ptr %0, ptr %3, align 8, !tbaa !9
  store ptr %1, ptr %4, align 8, !tbaa !9
  call void @llvm.lifetime.start.p0(i64 8, ptr %5) #9
  %6 = load ptr, ptr %4, align 8, !tbaa !9
  %7 = ptrtoint ptr %6 to i64
  store i64 %7, ptr %5, align 8, !tbaa !23
  %8 = load ptr, ptr %3, align 8, !tbaa !9
  %9 = getelementptr inbounds nuw %struct.PyGC_Head, ptr %8, i32 0, i32 0
  %10 = load i64, ptr %9, align 8, !tbaa !73
  %11 = and i64 %10, 3
  %12 = load i64, ptr %5, align 8, !tbaa !23
  %13 = or i64 %11, %12
  %14 = load ptr, ptr %3, align 8, !tbaa !9
  %15 = getelementptr inbounds nuw %struct.PyGC_Head, ptr %14, i32 0, i32 0
  store i64 %13, ptr %15, align 8, !tbaa !73
  call void @llvm.lifetime.end.p0(i64 8, ptr %5) #9
  ret void
}

; Function Attrs: inlinehint nounwind uwtable
define internal ptr @_PyGCHead_NEXT(ptr noundef %0) #3 {
  %2 = alloca ptr, align 8
  %3 = alloca i64, align 8
  store ptr %0, ptr %2, align 8, !tbaa !9
  call void @llvm.lifetime.start.p0(i64 8, ptr %3) #9
  %4 = load ptr, ptr %2, align 8, !tbaa !9
  %5 = getelementptr inbounds nuw %struct.PyGC_Head, ptr %4, i32 0, i32 0
  %6 = load i64, ptr %5, align 8, !tbaa !73
  %7 = and i64 %6, -4
  store i64 %7, ptr %3, align 8, !tbaa !23
  %8 = load i64, ptr %3, align 8, !tbaa !23
  %9 = inttoptr i64 %8 to ptr
  call void @llvm.lifetime.end.p0(i64 8, ptr %3) #9
  ret ptr %9
}

; Function Attrs: inlinehint nounwind uwtable
define internal ptr @_PyGCHead_PREV(ptr noundef %0) #3 {
  %2 = alloca ptr, align 8
  %3 = alloca i64, align 8
  store ptr %0, ptr %2, align 8, !tbaa !9
  call void @llvm.lifetime.start.p0(i64 8, ptr %3) #9
  %4 = load ptr, ptr %2, align 8, !tbaa !9
  %5 = getelementptr inbounds nuw %struct.PyGC_Head, ptr %4, i32 0, i32 1
  %6 = load i64, ptr %5, align 8, !tbaa !75
  %7 = and i64 %6, -4
  store i64 %7, ptr %3, align 8, !tbaa !23
  %8 = load i64, ptr %3, align 8, !tbaa !23
  %9 = inttoptr i64 %8 to ptr
  call void @llvm.lifetime.end.p0(i64 8, ptr %3) #9
  ret ptr %9
}

; Function Attrs: inlinehint nounwind uwtable
define internal ptr @_Py_AS_GC(ptr noundef %0) #3 {
  %2 = alloca ptr, align 8
  %3 = alloca ptr, align 8
  store ptr %0, ptr %2, align 8, !tbaa !4
  call void @llvm.lifetime.start.p0(i64 8, ptr %3) #9
  %4 = load ptr, ptr %2, align 8, !tbaa !4
  %5 = getelementptr i8, ptr %4, i64 -16
  store ptr %5, ptr %3, align 8, !tbaa !22
  %6 = load ptr, ptr %3, align 8, !tbaa !22
  call void @llvm.lifetime.end.p0(i64 8, ptr %3) #9
  ret ptr %6
}

; Function Attrs: inlinehint nounwind uwtable
define internal void @_PyObject_GC_UNTRACK(ptr noundef %0) #3 {
  %2 = alloca ptr, align 8
  %3 = alloca ptr, align 8
  %4 = alloca ptr, align 8
  %5 = alloca ptr, align 8
  store ptr %0, ptr %2, align 8, !tbaa !4
  call void @llvm.lifetime.start.p0(i64 8, ptr %3) #9
  %6 = load ptr, ptr %2, align 8, !tbaa !4
  %7 = call ptr @_Py_AS_GC(ptr noundef %6)
  store ptr %7, ptr %3, align 8, !tbaa !9
  call void @llvm.lifetime.start.p0(i64 8, ptr %4) #9
  %8 = load ptr, ptr %3, align 8, !tbaa !9
  %9 = call ptr @_PyGCHead_PREV(ptr noundef %8)
  store ptr %9, ptr %4, align 8, !tbaa !9
  call void @llvm.lifetime.start.p0(i64 8, ptr %5) #9
  %10 = load ptr, ptr %3, align 8, !tbaa !9
  %11 = call ptr @_PyGCHead_NEXT(ptr noundef %10)
  store ptr %11, ptr %5, align 8, !tbaa !9
  %12 = load ptr, ptr %4, align 8, !tbaa !9
  %13 = load ptr, ptr %5, align 8, !tbaa !9
  call void @_PyGCHead_SET_NEXT(ptr noundef %12, ptr noundef %13)
  %14 = load ptr, ptr %5, align 8, !tbaa !9
  %15 = load ptr, ptr %4, align 8, !tbaa !9
  call void @_PyGCHead_SET_PREV(ptr noundef %14, ptr noundef %15)
  %16 = load ptr, ptr %3, align 8, !tbaa !9
  %17 = getelementptr inbounds nuw %struct.PyGC_Head, ptr %16, i32 0, i32 0
  store i64 0, ptr %17, align 8, !tbaa !73
  %18 = load ptr, ptr %3, align 8, !tbaa !9
  %19 = getelementptr inbounds nuw %struct.PyGC_Head, ptr %18, i32 0, i32 1
  %20 = load i64, ptr %19, align 8, !tbaa !75
  %21 = and i64 %20, 1
  store i64 %21, ptr %19, align 8, !tbaa !75
  call void @llvm.lifetime.end.p0(i64 8, ptr %5) #9
  call void @llvm.lifetime.end.p0(i64 8, ptr %4) #9
  call void @llvm.lifetime.end.p0(i64 8, ptr %3) #9
  ret void
}

; Function Attrs: alwaysinline nounwind uwtable
define internal i32 @_Py_IsImmortal(ptr noundef %0) #4 {
  %2 = alloca ptr, align 8
  store ptr %0, ptr %2, align 8, !tbaa !4
  %3 = load ptr, ptr %2, align 8, !tbaa !4
  %4 = getelementptr inbounds nuw %struct._object, ptr %3, i32 0, i32 0
  %5 = getelementptr inbounds nuw %struct.anon, ptr %4, i32 0, i32 0
  %6 = load i32, ptr %5, align 8, !tbaa !29
  %7 = icmp slt i32 %6, 0
  %8 = zext i1 %7 to i32
  ret i32 %8
}

; Function Attrs: nounwind uwtable
define internal void @mbuf_release(ptr noundef %0) #0 {
  %2 = alloca ptr, align 8
  store ptr %0, ptr %2, align 8, !tbaa !9
  %3 = load ptr, ptr %2, align 8, !tbaa !9
  %4 = getelementptr inbounds nuw %struct._PyManagedBufferObject, ptr %3, i32 0, i32 1
  %5 = load i32, ptr %4, align 8, !tbaa !10
  %6 = and i32 %5, 1
  %7 = icmp ne i32 %6, 0
  br i1 %7, label %8, label %9

8:                                                ; preds = %1
  br label %17

9:                                                ; preds = %1
  %10 = load ptr, ptr %2, align 8, !tbaa !9
  %11 = getelementptr inbounds nuw %struct._PyManagedBufferObject, ptr %10, i32 0, i32 1
  %12 = load i32, ptr %11, align 8, !tbaa !10
  %13 = or i32 %12, 1
  store i32 %13, ptr %11, align 8, !tbaa !10
  %14 = load ptr, ptr %2, align 8, !tbaa !9
  call void @_PyObject_GC_UNTRACK(ptr noundef %14)
  %15 = load ptr, ptr %2, align 8, !tbaa !9
  %16 = getelementptr inbounds nuw %struct._PyManagedBufferObject, ptr %15, i32 0, i32 3
  call void @PyBuffer_Release(ptr noundef %16)
  br label %17

17:                                               ; preds = %9, %8
  ret void
}

; Function Attrs: alwaysinline nounwind uwtable
define internal void @Py_DECREF(ptr noundef %0) #4 {
  %2 = alloca ptr, align 8
  store ptr %0, ptr %2, align 8, !tbaa !4
  %3 = load ptr, ptr %2, align 8, !tbaa !4
  %4 = call i32 @_Py_IsImmortal(ptr noundef %3)
  %5 = icmp ne i32 %4, 0
  br i1 %5, label %6, label %7

6:                                                ; preds = %1
  br label %16

7:                                                ; preds = %1
  %8 = load ptr, ptr %2, align 8, !tbaa !4
  %9 = getelementptr inbounds nuw %struct._object, ptr %8, i32 0, i32 0
  %10 = getelementptr inbounds nuw %struct.anon, ptr %9, i32 0, i32 0
  %11 = load i32, ptr %10, align 8, !tbaa !29
  %12 = add i32 %11, -1
  store i32 %12, ptr %10, align 8, !tbaa !29
  %13 = icmp eq i32 %12, 0
  br i1 %13, label %14, label %16

14:                                               ; preds = %7
  %15 = load ptr, ptr %2, align 8, !tbaa !4
  call void @_Py_Dealloc(ptr noundef %15)
  br label %16

16:                                               ; preds = %6, %14, %7
  ret void
}

; Function Attrs: nounwind uwtable
define internal void @_memory_release(ptr noundef %0) #0 {
  %2 = alloca ptr, align 8
  store ptr %0, ptr %2, align 8, !tbaa !9
  %3 = load ptr, ptr %2, align 8, !tbaa !9
  %4 = getelementptr inbounds nuw %struct.PyMemoryViewObject, ptr %3, i32 0, i32 3
  %5 = load i32, ptr %4, align 8, !tbaa !33
  %6 = and i32 %5, 1
  %7 = icmp ne i32 %6, 0
  br i1 %7, label %8, label %9

8:                                                ; preds = %1
  br label %25

9:                                                ; preds = %1
  %10 = load ptr, ptr %2, align 8, !tbaa !9
  %11 = getelementptr inbounds nuw %struct.PyMemoryViewObject, ptr %10, i32 0, i32 3
  %12 = load i32, ptr %11, align 8, !tbaa !33
  %13 = or i32 %12, 1
  store i32 %13, ptr %11, align 8, !tbaa !33
  %14 = load ptr, ptr %2, align 8, !tbaa !9
  %15 = getelementptr inbounds nuw %struct.PyMemoryViewObject, ptr %14, i32 0, i32 1
  %16 = load ptr, ptr %15, align 8, !tbaa !26
  %17 = getelementptr inbounds nuw %struct._PyManagedBufferObject, ptr %16, i32 0, i32 2
  %18 = load i64, ptr %17, align 8, !tbaa !24
  %19 = add i64 %18, -1
  store i64 %19, ptr %17, align 8, !tbaa !24
  %20 = icmp eq i64 %19, 0
  br i1 %20, label %21, label %25

21:                                               ; preds = %9
  %22 = load ptr, ptr %2, align 8, !tbaa !9
  %23 = getelementptr inbounds nuw %struct.PyMemoryViewObject, ptr %22, i32 0, i32 1
  %24 = load ptr, ptr %23, align 8, !tbaa !26
  call void @mbuf_release(ptr noundef %24)
  br label %25

25:                                               ; preds = %8, %21, %9
  ret void
}

; Function Attrs: inlinehint nounwind uwtable
define internal i64 @get_exports(ptr noundef %0) #3 {
  %2 = alloca ptr, align 8
  store ptr %0, ptr %2, align 8, !tbaa !9
  %3 = load ptr, ptr %2, align 8, !tbaa !9
  %4 = getelementptr inbounds nuw %struct.PyMemoryViewObject, ptr %3, i32 0, i32 4
  %5 = load i64, ptr %4, align 8, !tbaa !155
  ret i64 %5
}

; Function Attrs: nounwind uwtable
define internal i32 @memory_clear(ptr noundef %0) #0 {
  %2 = alloca ptr, align 8
  %3 = alloca ptr, align 8
  %4 = alloca ptr, align 8
  %5 = alloca ptr, align 8
  store ptr %0, ptr %2, align 8, !tbaa !4
  call void @llvm.lifetime.start.p0(i64 8, ptr %3) #9
  %6 = load ptr, ptr %2, align 8, !tbaa !4
  store ptr %6, ptr %3, align 8, !tbaa !9
  %7 = load ptr, ptr %3, align 8, !tbaa !9
  %8 = call i64 @get_exports(ptr noundef %7)
  %9 = icmp eq i64 %8, 0
  br i1 %9, label %10, label %25

10:                                               ; preds = %1
  %11 = load ptr, ptr %3, align 8, !tbaa !9
  call void @_memory_release(ptr noundef %11)
  br label %12

12:                                               ; preds = %10
  call void @llvm.lifetime.start.p0(i64 8, ptr %4) #9
  %13 = load ptr, ptr %3, align 8, !tbaa !9
  %14 = getelementptr inbounds nuw %struct.PyMemoryViewObject, ptr %13, i32 0, i32 1
  store ptr %14, ptr %4, align 8, !tbaa !9
  call void @llvm.lifetime.start.p0(i64 8, ptr %5) #9
  %15 = load ptr, ptr %4, align 8, !tbaa !9
  %16 = load ptr, ptr %15, align 8, !tbaa !9
  store ptr %16, ptr %5, align 8, !tbaa !9
  %17 = load ptr, ptr %5, align 8, !tbaa !9
  %18 = icmp ne ptr %17, null
  br i1 %18, label %19, label %22

19:                                               ; preds = %12
  %20 = load ptr, ptr %4, align 8, !tbaa !9
  store ptr null, ptr %20, align 8, !tbaa !9
  %21 = load ptr, ptr %5, align 8, !tbaa !9
  call void @Py_DECREF(ptr noundef %21)
  br label %22

22:                                               ; preds = %19, %12
  call void @llvm.lifetime.end.p0(i64 8, ptr %5) #9
  call void @llvm.lifetime.end.p0(i64 8, ptr %4) #9
  br label %23

23:                                               ; preds = %22
  br label %24

24:                                               ; preds = %23
  br label %25

25:                                               ; preds = %24, %1
  call void @llvm.lifetime.end.p0(i64 8, ptr %3) #9
  ret i32 0
}