; Function Attrs: nounwind uwtable
define internal noundef i32 @memory_clear(ptr noundef captures(none) %0) #0 {
  %2 = getelementptr i8, ptr %0, i64 48
  %.val = load i64, ptr %2, align 8, !tbaa !110
  %3 = icmp eq i64 %.val, 0
  br i1 %3, label %4, label %Py_DECREF.exit

4:                                                ; preds = %1
  %5 = getelementptr inbounds nuw i8, ptr %0, i64 40
  %6 = load i32, ptr %5, align 8, !tbaa !109
  %7 = and i32 %6, 1
  %.not.i8 = icmp eq i32 %7, 0
  br i1 %.not.i8, label %8, label %_memory_release.exit

8:                                                ; preds = %4
  %9 = or disjoint i32 %6, 1
  store i32 %9, ptr %5, align 8, !tbaa !109
  %10 = getelementptr inbounds nuw i8, ptr %0, i64 24
  %11 = load ptr, ptr %10, align 8, !tbaa !105
  %12 = getelementptr inbounds nuw i8, ptr %11, i64 24
  %13 = load i64, ptr %12, align 8, !tbaa !22
  %14 = add i64 %13, -1
  store i64 %14, ptr %12, align 8, !tbaa !22
  %15 = icmp eq i64 %14, 0
  br i1 %15, label %16, label %_memory_release.exit

16:                                               ; preds = %8
  %17 = getelementptr inbounds nuw i8, ptr %11, i64 16
  %18 = load i32, ptr %17, align 8, !tbaa !4
  %19 = and i32 %18, 1
  %.not.i.i = icmp eq i32 %19, 0
  br i1 %.not.i.i, label %20, label %_memory_release.exit

20:                                               ; preds = %16
  %21 = or disjoint i32 %18, 1
  store i32 %21, ptr %17, align 8, !tbaa !4
  %22 = getelementptr i8, ptr %11, i64 -16
  %23 = getelementptr i8, ptr %11, i64 -8
  %.val.i.i.i = load i64, ptr %23, align 8, !tbaa !17
  %24 = and i64 %.val.i.i.i, -4
  %25 = inttoptr i64 %24 to ptr
  %.val9.i.i.i = load i64, ptr %22, align 8, !tbaa !19
  %26 = and i64 %.val9.i.i.i, -4
  %27 = inttoptr i64 %26 to ptr
  %28 = load i64, ptr %25, align 8, !tbaa !19
  %29 = and i64 %28, 3
  %30 = or disjoint i64 %29, %26
  store i64 %30, ptr %25, align 8, !tbaa !19
  %31 = getelementptr inbounds nuw i8, ptr %27, i64 8
  %32 = load i64, ptr %31, align 8, !tbaa !17
  %33 = and i64 %32, 3
  %34 = or disjoint i64 %33, %24
  store i64 %34, ptr %31, align 8, !tbaa !17
  store i64 0, ptr %22, align 8, !tbaa !19
  %35 = load i64, ptr %23, align 8, !tbaa !17
  %36 = and i64 %35, 1
  store i64 %36, ptr %23, align 8, !tbaa !17
  %37 = getelementptr inbounds nuw i8, ptr %11, i64 32
  tail call void @PyBuffer_Release(ptr noundef nonnull %37) #14
  br label %_memory_release.exit

_memory_release.exit:                             ; preds = %4, %8, %16, %20
  %38 = getelementptr inbounds nuw i8, ptr %0, i64 24
  %39 = load ptr, ptr %38, align 8, !tbaa !130
  %.not = icmp eq ptr %39, null
  br i1 %.not, label %Py_DECREF.exit, label %40

40:                                               ; preds = %_memory_release.exit
  store ptr null, ptr %38, align 8, !tbaa !130
  %41 = load i32, ptr %39, align 8, !tbaa !102
  %.not.i = icmp sgt i32 %41, -1
  br i1 %.not.i, label %42, label %Py_DECREF.exit

42:                                               ; preds = %40
  %43 = add nsw i32 %41, -1
  store i32 %43, ptr %39, align 8, !tbaa !102
  %44 = icmp eq i32 %43, 0
  br i1 %44, label %45, label %Py_DECREF.exit

45:                                               ; preds = %42
  tail call void @_Py_Dealloc(ptr noundef nonnull %39) #14
  br label %Py_DECREF.exit

Py_DECREF.exit:                                   ; preds = %45, %42, %40, %_memory_release.exit, %1
  ret i32 0
}